(lp1
(lp2
I91
aI39
aI0
aI38
aa(lp3
I64
aI27
aI0
aI6
aa(lp4
I480
aI395
aI0
aI70
aa(lp5
I101
aI62
aI0
aI56
aa(lp6
I146
aI91
aI0
aI0
aa(lp7
I42
aI30
aI0
aI6
aa(lp8
I241
aI174
aI0
aI100
aa(lp9
I111
aI67
aI0
aI24
aa(lp10
I15
aI1
aI0
aI0
aa(lp11
I162
aI89
aI0
aI42
aa(lp12
I180
aI114
aI0
aI100
aa(lp13
I137
aI53
aI0
aI34
aa(lp14
I105
aI46
aI0
aI50
aa(lp15
I67
aI41
aI0
aI0
aa(lp16
I247
aI146
aI0
aI200
aa(lp17
I55
aI34
aI0
aI40
aa(lp18
I126
aI82
aI0
aI24
aa(lp19
I180
aI116
aI0
aI6
aa(lp20
I189
aI123
aI0
aI22
aa(lp21
I41
aI19
aI0
aI0
aa(lp22
I79
aI45
aI0
aI30
aa(lp23
I10
aI6
aI0
aI4
aa(lp24
I0
aI0
aI0
aI0
aa(lp25
I227
aI172
aI0
aI10
aa(lp26
I166
aI122
aI0
aI62
aa(lp27
I192
aI136
aI0
aI122
aa(lp28
I179
aI104
aI0
aI34
aa(lp29
I94
aI66
aI0
aI44
aa(lp30
I277
aI226
aI0
aI94
aa(lp31
I177
aI93
aI0
aI38
aa(lp32
I4
aI0
aI0
aI0
aa(lp33
I185
aI98
aI0
aI110
aa(lp34
I7
aI4
aI0
aI4
aa(lp35
I69
aI32
aI0
aI26
aa(lp36
I205
aI127
aI0
aI56
aa(lp37
I19
aI13
aI0
aI0
aa(lp38
I23
aI8
aI0
aI12
aa(lp39
I123
aI27
aI0
aI34
aa(lp40
I69
aI29
aI0
aI12
aa(lp41
I160
aI103
aI0
aI62
aa(lp42
I11
aI5
aI0
aI0
aa(lp43
I46
aI27
aI0
aI10
aa(lp44
I243
aI167
aI0
aI60
aa(lp45
I35
aI24
aI0
aI10
aa(lp46
I91
aI17
aI0
aI48
aa(lp47
I143
aI96
aI0
aI128
aa(lp48
I19
aI1
aI0
aI0
aa.