(lp1
(lp2
I39
aI10
aI0
aI2
aa(lp3
I37
aI0
aI0
aI18
aa(lp4
I121
aI88
aI0
aI6
aa(lp5
I77
aI48
aI0
aI2
aa(lp6
I220
aI0
aI0
aI2
aa(lp7
I105
aI54
aI0
aI0
aa(lp8
I28
aI14
aI0
aI2
aa(lp9
I41
aI7
aI0
aI4
aa(lp10
I5
aI0
aI0
aI0
aa(lp11
I45
aI15
aI0
aI2
aa(lp12
I253
aI181
aI0
aI4
aa(lp13
I127
aI61
aI0
aI0
aa(lp14
I59
aI30
aI0
aI2
aa(lp15
I42
aI0
aI0
aI4
aa(lp16
I29
aI0
aI0
aI0
aa(lp17
I233
aI157
aI0
aI10
aa(lp18
I77
aI0
aI0
aI0
aa(lp19
I89
aI47
aI0
aI12
aa(lp20
I179
aI111
aI0
aI20
aa(lp21
I141
aI0
aI0
aI14
aa(lp22
I85
aI40
aI0
aI0
aa(lp23
I87
aI44
aI0
aI2
aa(lp24
I143
aI11
aI0
aI0
aa(lp25
I161
aI112
aI0
aI6
aa(lp26
I400
aI188
aI0
aI66
aa(lp27
I5
aI1
aI0
aI0
aa(lp28
I84
aI49
aI0
aI0
aa(lp29
I154
aI25
aI0
aI46
aa(lp30
I64
aI27
aI0
aI0
aa(lp31
I38
aI2
aI0
aI10
aa(lp32
I71
aI33
aI0
aI2
aa(lp33
I220
aI71
aI0
aI30
aa(lp34
I181
aI118
aI0
aI0
aa(lp35
I108
aI67
aI0
aI2
aa(lp36
I68
aI22
aI0
aI6
aa(lp37
I23
aI5
aI0
aI0
aa(lp38
I140
aI70
aI0
aI2
aa(lp39
I157
aI99
aI0
aI22
aa(lp40
I10
aI3
aI0
aI0
aa(lp41
I1
aI0
aI0
aI0
aa(lp42
I120
aI66
aI0
aI6
aa(lp43
I63
aI23
aI0
aI4
aa(lp44
I55
aI34
aI0
aI0
aa(lp45
I100
aI38
aI0
aI8
aa(lp46
I55
aI36
aI0
aI0
aa(lp47
I41
aI17
aI0
aI4
aa(lp48
I13
aI0
aI0
aI6
aa(lp49
I70
aI30
aI0
aI14
aa(lp50
I124
aI74
aI0
aI12
aa(lp51
I216
aI21
aI0
aI36
aa(lp52
I88
aI37
aI0
aI2
aa(lp53
I69
aI29
aI0
aI0
aa(lp54
I145
aI84
aI0
aI4
aa(lp55
I19
aI0
aI0
aI2
aa(lp56
I367
aI254
aI0
aI36
aa.