(lp1
(lp2
I167
aI73
aI0
aI14
aa(lp3
I23
aI0
aI0
aI20
aa(lp4
I32
aI0
aI0
aI10
aa(lp5
I112
aI15
aI0
aI40
aa(lp6
I161
aI52
aI0
aI46
aa(lp7
I121
aI69
aI0
aI0
aa(lp8
I20
aI2
aI0
aI2
aa(lp9
I145
aI39
aI0
aI24
aa(lp10
I365
aI161
aI0
aI94
aa(lp11
I35
aI5
aI0
aI0
aa(lp12
I229
aI174
aI0
aI0
aa(lp13
I182
aI111
aI0
aI0
aa(lp14
I54
aI7
aI0
aI6
aa(lp15
I230
aI108
aI0
aI70
aa(lp16
I21
aI1
aI0
aI2
aa(lp17
I9
aI1
aI0
aI0
aa(lp18
I206
aI80
aI0
aI74
aa(lp19
I43
aI10
aI0
aI0
aa(lp20
I157
aI24
aI0
aI6
aa(lp21
I61
aI30
aI0
aI2
aa(lp22
I30
aI12
aI0
aI0
aa(lp23
I221
aI103
aI0
aI50
aa(lp24
I203
aI124
aI0
aI0
aa(lp25
I98
aI25
aI0
aI6
aa(lp26
I45
aI12
aI0
aI6
aa(lp27
I15
aI8
aI0
aI0
aa(lp28
I65
aI31
aI0
aI0
aa(lp29
I123
aI67
aI0
aI10
aa(lp30
I7
aI0
aI0
aI0
aa(lp31
I79
aI29
aI0
aI0
aa(lp32
I234
aI135
aI0
aI28
aa(lp33
I38
aI22
aI0
aI0
aa(lp34
I74
aI34
aI0
aI4
aa(lp35
I315
aI166
aI0
aI54
aa(lp36
I80
aI22
aI0
aI10
aa(lp37
I73
aI12
aI0
aI14
aa(lp38
I25
aI2
aI0
aI2
aa(lp39
I34
aI11
aI0
aI4
aa(lp40
I249
aI169
aI0
aI14
aa(lp41
I176
aI99
aI0
aI4
aa(lp42
I84
aI27
aI0
aI22
aa(lp43
I42
aI17
aI0
aI2
aa(lp44
I174
aI115
aI0
aI48
aa(lp45
I105
aI39
aI0
aI12
aa(lp46
I44
aI28
aI0
aI0
aa(lp47
I248
aI191
aI0
aI4
aa(lp48
I129
aI91
aI0
aI0
aa(lp49
I12
aI3
aI0
aI2
aa(lp50
I128
aI27
aI0
aI44
aa(lp51
I5
aI2
aI0
aI0
aa(lp52
I180
aI102
aI0
aI16
aa(lp53
I271
aI148
aI0
aI44
aa.